target datalayout = "e-m:e-p270:32:32-p271:32:32-p272:64:64-i64:64-i128:128-f80:128-n8:16:32:64-S128"
target triple = "x86_64-pc-linux-gnu"

%"class.cv::ORB_Impl" = type <{ %"class.cv::ORB", i32, [4 x i8], double, i32, i32, i32, i32, i32, i32, i32, [4 x i8] }>
%"class.cv::ORB" = type { %"class.cv::Feature2D" }
%"class.cv::Feature2D" = type { %"class.cv::Algorithm" }
%"class.cv::Algorithm" = type { ptr }

; Function Attrs: mustprogress nounwind uwtable
define hidden noundef i32 @_ZNK2cv8ORB_Impl11defaultNormEv(ptr noundef nonnull align 8 dereferenceable(56) %0) unnamed_addr #5 align 2 {
  %2 = alloca i32, align 4
  %3 = alloca ptr, align 8
  store ptr %0, ptr %3, align 8, !tbaa !3
  %4 = load ptr, ptr %3, align 8
  %5 = getelementptr inbounds nuw %"class.cv::ORB_Impl", ptr %4, i32 0, i32 7
  %6 = load i32, ptr %5, align 4, !tbaa !42
  switch i32 %6, label %9 [
    i32 2, label %7
    i32 3, label %8
    i32 4, label %8
  ]

7:                                                ; preds = %1
  store i32 6, ptr %2, align 4
  br label %10

8:                                                ; preds = %1, %1
  store i32 7, ptr %2, align 4
  br label %10

9:                                                ; preds = %1
  store i32 -1, ptr %2, align 4
  br label %10

10:                                               ; preds = %9, %8, %7
  %11 = load i32, ptr %2, align 4
  ret i32 %11
}