; Function Attrs: mustprogress nofree norecurse nosync nounwind willreturn memory(argmem: read) uwtable
define hidden noundef range(i32 -1, 8) i32 @_ZNK2cv8ORB_Impl11defaultNormEv(ptr noundef nonnull readonly align 8 captures(none) dereferenceable(56) %0) unnamed_addr #5 align 2 {
  %2 = getelementptr inbounds nuw i8, ptr %0, i64 36
  %3 = load i32, ptr %2, align 4, !tbaa !33
  %switch.tableidx = add i32 %3, -2
  %4 = icmp ult i32 %switch.tableidx, 3
  br i1 %4, label %switch.lookup, label %6

switch.lookup:                                    ; preds = %1
  %5 = zext nneg i32 %switch.tableidx to i64
  %switch.gep = getelementptr inbounds nuw [3 x i32], ptr @switch.table._ZNK2cv8ORB_Impl11defaultNormEv, i64 0, i64 %5
  %switch.load = load i32, ptr %switch.gep, align 4
  br label %6

6:                                                ; preds = %1, %switch.lookup
  %.0 = phi i32 [ %switch.load, %switch.lookup ], [ -1, %1 ]
  ret i32 %.0
}